; Function Attrs: nounwind uwtable
define hidden noundef i32 @dom_documenttype_system_id_read(ptr noundef %0, ptr nocapture noundef writeonly %1) local_unnamed_addr #0 {
  %3 = tail call ptr @dom_object_get_node(ptr noundef %0) #9
  %4 = icmp eq ptr %3, null
  br i1 %4, label %5, label %6

5:                                                ; preds = %2
  tail call void @php_dom_throw_error(i32 noundef 11, i32 noundef 1) #9
  br label %23

6:                                                ; preds = %2
  %7 = getelementptr inbounds i8, ptr %3, i64 112
  %8 = load ptr, ptr %7, align 8
  %.not = icmp eq ptr %8, null
  br i1 %.not, label %20, label %9

9:                                                ; preds = %6
  %10 = tail call i64 @strlen(ptr noundef nonnull dereferenceable(1) %8) #10
  %11 = and i64 %10, -8
  %12 = add i64 %11, 32
  %13 = tail call noalias ptr @_emalloc(i64 noundef %12) #11
  store i32 1, ptr %13, align 4
  %14 = getelementptr inbounds i8, ptr %13, i64 4
  store i32 22, ptr %14, align 4
  %15 = getelementptr inbounds i8, ptr %13, i64 8
  store i64 0, ptr %15, align 8
  %16 = getelementptr inbounds i8, ptr %13, i64 16
  store i64 %10, ptr %16, align 8
  %17 = getelementptr inbounds i8, ptr %13, i64 24
  tail call void @llvm.memcpy.p0.p0.i64(ptr nonnull align 8 %17, ptr nonnull align 1 %8, i64 %10, i1 false)
  %18 = getelementptr inbounds [1 x i8], ptr %17, i64 0, i64 %10
  store i8 0, ptr %18, align 1
  store ptr %13, ptr %1, align 8
  %19 = getelementptr inbounds i8, ptr %1, i64 8
  store i32 262, ptr %19, align 8
  br label %23

20:                                               ; preds = %6
  %21 = load ptr, ptr @zend_empty_string, align 8
  store ptr %21, ptr %1, align 8
  %22 = getelementptr inbounds i8, ptr %1, i64 8
  store i32 6, ptr %22, align 8
  br label %23

23:                                               ; preds = %9, %20, %5
  %.0 = phi i32 [ -1, %5 ], [ 0, %20 ], [ 0, %9 ]
  ret i32 %.0
}